ccopy_reg
_reconstructor
p0
(cheppy.statistics.counter
Counter
p1
c__builtin__
list
p2
(lp3
(lp4
S'All events'
p5
aI28514
aa(lp6
S'1 lepton'
p7
aI10400
aa(lp8
S'4 particles'
p9
aI25996
aa(lp10
S'1 lepton && 4 particles'
p11
aI9460
aatp12
Rp13
(dp14
S'name'
p15
S'events'
p16
sS'dico'
p17
(dp18
g7
I1
sg5
I0
sg11
I3
sg9
I2
ssb.